target datalayout = "e-m:e-p270:32:32-p271:32:32-p272:64:64-i64:64-i128:128-f80:128-n8:16:32:64-S128"
target triple = "x86_64-pc-linux-gnu"

%struct.mcclellan = type { i16, i32, i16, i16, i32, i32, i32, i16, i16, i16, i16, i8, i8, i8, i8, [256 x i8], i32, i32, i32, i32 }
%struct.gough_som_info = type { [1 x i64] }
%struct.gough_info = type { i32, i32, i32, i8 }
%struct.unaligned.11 = type { i16 }
%struct.unaligned.9 = type { i32 }
%struct.unaligned.10 = type { i64 }

; Function Attrs: alwaysinline nounwind uwtable
define internal i64 @unaligned_load_u64a(ptr noundef %0) #2 {
  %2 = alloca ptr, align 8
  %3 = alloca ptr, align 8
  store ptr %0, ptr %2, align 8
  call void @llvm.lifetime.start.p0(i64 8, ptr %3) #10
  %4 = load ptr, ptr %2, align 8
  store ptr %4, ptr %3, align 8
  %5 = load ptr, ptr %3, align 8
  %6 = getelementptr inbounds nuw %struct.unaligned.10, ptr %5, i32 0, i32 0
  %7 = load i64, ptr %6, align 1
  call void @llvm.lifetime.end.p0(i64 8, ptr %3) #10
  ret i64 %7
}

; Function Attrs: alwaysinline nounwind uwtable
define internal i32 @unaligned_load_u32(ptr noundef %0) #2 {
  %2 = alloca ptr, align 8
  %3 = alloca ptr, align 8
  store ptr %0, ptr %2, align 8
  call void @llvm.lifetime.start.p0(i64 8, ptr %3) #10
  %4 = load ptr, ptr %2, align 8
  store ptr %4, ptr %3, align 8
  %5 = load ptr, ptr %3, align 8
  %6 = getelementptr inbounds nuw %struct.unaligned.9, ptr %5, i32 0, i32 0
  %7 = load i32, ptr %6, align 1
  call void @llvm.lifetime.end.p0(i64 8, ptr %3) #10
  ret i32 %7
}

; Function Attrs: alwaysinline nounwind uwtable
define internal i64 @expandSomValue(i32 noundef %0, i64 noundef %1, ptr noundef %2, i32 noundef %3) #2 {
  %5 = alloca i64, align 8
  %6 = alloca i32, align 4
  %7 = alloca i64, align 8
  %8 = alloca ptr, align 8
  %9 = alloca i32, align 4
  %10 = alloca ptr, align 8
  %11 = alloca i64, align 8
  %12 = alloca i32, align 4
  store i32 %0, ptr %6, align 4
  store i64 %1, ptr %7, align 8
  store ptr %2, ptr %8, align 8
  store i32 %3, ptr %9, align 4
  call void @llvm.lifetime.start.p0(i64 8, ptr %10) #10
  %13 = load ptr, ptr %8, align 8
  %14 = load i32, ptr %9, align 4
  %15 = load i32, ptr %6, align 4
  %16 = mul i32 %14, %15
  %17 = zext i32 %16 to i64
  %18 = getelementptr inbounds nuw i8, ptr %13, i64 %17
  store ptr %18, ptr %10, align 8
  call void @llvm.lifetime.start.p0(i64 8, ptr %11) #10
  store i64 0, ptr %11, align 8
  %19 = load i32, ptr %6, align 4
  switch i32 %19, label %43 [
    i32 2, label %20
    i32 4, label %28
    i32 8, label %36
  ]

20:                                               ; preds = %4
  %21 = load ptr, ptr %10, align 8
  %22 = call zeroext i16 @unaligned_load_u16(ptr noundef %21)
  %23 = zext i16 %22 to i64
  store i64 %23, ptr %11, align 8
  %24 = load i64, ptr %11, align 8
  %25 = icmp eq i64 %24, 65535
  br i1 %25, label %26, label %27

26:                                               ; preds = %20
  store i64 -1, ptr %5, align 8
  store i32 1, ptr %12, align 4
  br label %48

27:                                               ; preds = %20
  br label %44

28:                                               ; preds = %4
  %29 = load ptr, ptr %10, align 8
  %30 = call i32 @unaligned_load_u32(ptr noundef %29)
  %31 = zext i32 %30 to i64
  store i64 %31, ptr %11, align 8
  %32 = load i64, ptr %11, align 8
  %33 = icmp eq i64 %32, 4294967295
  br i1 %33, label %34, label %35

34:                                               ; preds = %28
  store i64 -1, ptr %5, align 8
  store i32 1, ptr %12, align 4
  br label %48

35:                                               ; preds = %28
  br label %44

36:                                               ; preds = %4
  %37 = load ptr, ptr %10, align 8
  %38 = call i64 @unaligned_load_u64a(ptr noundef %37)
  store i64 %38, ptr %11, align 8
  %39 = load i64, ptr %11, align 8
  %40 = icmp eq i64 %39, -1
  br i1 %40, label %41, label %42

41:                                               ; preds = %36
  store i64 -1, ptr %5, align 8
  store i32 1, ptr %12, align 4
  br label %48

42:                                               ; preds = %36
  br label %44

43:                                               ; preds = %4
  br label %44

44:                                               ; preds = %43, %42, %35, %27
  %45 = load i64, ptr %7, align 8
  %46 = load i64, ptr %11, align 8
  %47 = sub i64 %45, %46
  store i64 %47, ptr %5, align 8
  store i32 1, ptr %12, align 4
  br label %48

48:                                               ; preds = %44, %41, %34, %26
  call void @llvm.lifetime.end.p0(i64 8, ptr %11) #10
  call void @llvm.lifetime.end.p0(i64 8, ptr %10) #10
  %49 = load i64, ptr %5, align 8
  ret i64 %49
}

; Function Attrs: alwaysinline nounwind uwtable
define internal ptr @get_gough(ptr noundef %0) #2 {
  %2 = alloca ptr, align 8
  %3 = alloca ptr, align 8
  store ptr %0, ptr %2, align 8
  call void @llvm.lifetime.start.p0(i64 8, ptr %3) #10
  %4 = load ptr, ptr %2, align 8
  %5 = getelementptr inbounds i8, ptr %4, i64 -64
  store ptr %5, ptr %3, align 8
  %6 = load ptr, ptr %3, align 8
  %7 = load ptr, ptr %2, align 8
  %8 = getelementptr inbounds nuw %struct.mcclellan, ptr %7, i32 0, i32 18
  %9 = load i32, ptr %8, align 4
  %10 = zext i32 %9 to i64
  %11 = getelementptr inbounds nuw i8, ptr %6, i64 %10
  call void @llvm.lifetime.end.p0(i64 8, ptr %3) #10
  ret ptr %11
}

; Function Attrs: alwaysinline nounwind uwtable
define internal void @expandSomSpace(ptr noundef %0, ptr noundef %1, ptr noundef %2, i64 noundef %3) #2 {
  %5 = alloca ptr, align 8
  %6 = alloca ptr, align 8
  %7 = alloca ptr, align 8
  %8 = alloca i64, align 8
  %9 = alloca ptr, align 8
  %10 = alloca ptr, align 8
  %11 = alloca i32, align 4
  %12 = alloca i32, align 4
  %13 = alloca i32, align 4
  store ptr %0, ptr %5, align 8
  store ptr %1, ptr %6, align 8
  store ptr %2, ptr %7, align 8
  store i64 %3, ptr %8, align 8
  call void @llvm.lifetime.start.p0(i64 8, ptr %9) #10
  %14 = load ptr, ptr %5, align 8
  %15 = getelementptr inbounds nuw i8, ptr %14, i64 64
  store ptr %15, ptr %9, align 8
  call void @llvm.lifetime.start.p0(i64 8, ptr %10) #10
  %16 = load ptr, ptr %9, align 8
  %17 = call ptr @get_gough(ptr noundef %16)
  store ptr %17, ptr %10, align 8
  call void @llvm.lifetime.start.p0(i64 4, ptr %11) #10
  %18 = load ptr, ptr %10, align 8
  %19 = getelementptr inbounds nuw %struct.gough_info, ptr %18, i32 0, i32 2
  %20 = load i32, ptr %19, align 4
  store i32 %20, ptr %11, align 4
  call void @llvm.lifetime.start.p0(i64 4, ptr %12) #10
  %21 = load ptr, ptr %10, align 8
  %22 = getelementptr inbounds nuw %struct.gough_info, ptr %21, i32 0, i32 3
  %23 = load i8, ptr %22, align 4
  %24 = zext i8 %23 to i32
  store i32 %24, ptr %12, align 4
  call void @llvm.lifetime.start.p0(i64 4, ptr %13) #10
  store i32 0, ptr %13, align 4
  br label %25

25:                                               ; preds = %41, %4
  %26 = load i32, ptr %13, align 4
  %27 = load i32, ptr %11, align 4
  %28 = icmp ult i32 %26, %27
  br i1 %28, label %30, label %29

29:                                               ; preds = %25
  call void @llvm.lifetime.end.p0(i64 4, ptr %13) #10
  br label %44

30:                                               ; preds = %25
  %31 = load i32, ptr %12, align 4
  %32 = load i64, ptr %8, align 8
  %33 = load ptr, ptr %7, align 8
  %34 = load i32, ptr %13, align 4
  %35 = call i64 @expandSomValue(i32 noundef %31, i64 noundef %32, ptr noundef %33, i32 noundef %34)
  %36 = load ptr, ptr %6, align 8
  %37 = getelementptr inbounds nuw %struct.gough_som_info, ptr %36, i32 0, i32 0
  %38 = load i32, ptr %13, align 4
  %39 = zext i32 %38 to i64
  %40 = getelementptr inbounds nuw [1 x i64], ptr %37, i64 0, i64 %39
  store i64 %35, ptr %40, align 8
  br label %41

41:                                               ; preds = %30
  %42 = load i32, ptr %13, align 4
  %43 = add i32 %42, 1
  store i32 %43, ptr %13, align 4
  br label %25

44:                                               ; preds = %29
  call void @llvm.lifetime.end.p0(i64 4, ptr %12) #10
  call void @llvm.lifetime.end.p0(i64 4, ptr %11) #10
  call void @llvm.lifetime.end.p0(i64 8, ptr %10) #10
  call void @llvm.lifetime.end.p0(i64 8, ptr %9) #10
  ret void
}

; Function Attrs: alwaysinline nounwind uwtable
define internal ptr @getSomInfo(ptr noundef %0) #2 {
  %2 = alloca ptr, align 8
  store ptr %0, ptr %2, align 8
  %3 = load ptr, ptr %2, align 8
  %4 = getelementptr inbounds i8, ptr %3, i64 16
  ret ptr %4
}

; Function Attrs: alwaysinline nounwind uwtable
define internal zeroext i16 @unaligned_load_u16(ptr noundef %0) #2 {
  %2 = alloca ptr, align 8
  %3 = alloca ptr, align 8
  store ptr %0, ptr %2, align 8
  call void @llvm.lifetime.start.p0(i64 8, ptr %3) #10
  %4 = load ptr, ptr %2, align 8
  store ptr %4, ptr %3, align 8
  %5 = load ptr, ptr %3, align 8
  %6 = getelementptr inbounds nuw %struct.unaligned.11, ptr %5, i32 0, i32 0
  %7 = load i16, ptr %6, align 1
  call void @llvm.lifetime.end.p0(i64 8, ptr %3) #10
  ret i16 %7
}

; Function Attrs: nounwind uwtable
define hidden signext i8 @nfaExecGough16_expandState(ptr noundef %0, ptr noundef %1, ptr noundef %2, i64 noundef %3, i8 noundef zeroext %4) #0 {
  %6 = alloca ptr, align 8
  %7 = alloca ptr, align 8
  %8 = alloca ptr, align 8
  %9 = alloca i64, align 8
  %10 = alloca i8, align 1
  store ptr %0, ptr %6, align 8
  store ptr %1, ptr %7, align 8
  store ptr %2, ptr %8, align 8
  store i64 %3, ptr %9, align 8
  store i8 %4, ptr %10, align 1
  %11 = load ptr, ptr %8, align 8
  %12 = call zeroext i16 @unaligned_load_u16(ptr noundef %11)
  %13 = load ptr, ptr %7, align 8
  store i16 %12, ptr %13, align 2
  %14 = load ptr, ptr %6, align 8
  %15 = load ptr, ptr %7, align 8
  %16 = call ptr @getSomInfo(ptr noundef %15)
  %17 = load ptr, ptr %8, align 8
  %18 = getelementptr inbounds i8, ptr %17, i64 2
  %19 = load i64, ptr %9, align 8
  call void @expandSomSpace(ptr noundef %14, ptr noundef %16, ptr noundef %18, i64 noundef %19)
  ret i8 0
}